; Function Attrs: mustprogress nofree norecurse nosync nounwind willreturn memory(argmem: readwrite) uwtable
define noundef nonnull align 8 dereferenceable(32) ptr @_ZN32pxrInternal_v0_24__pxrReserved__10GfMatrix2dmIERKS0_(ptr noundef nonnull returned align 8 dereferenceable(32) %0, ptr noundef nonnull readonly align 8 captures(none) dereferenceable(32) %1) local_unnamed_addr #2 align 2 {
  %3 = load double, ptr %1, align 8
  %4 = load double, ptr %0, align 8
  %5 = fsub double %4, %3
  store double %5, ptr %0, align 8
  %6 = getelementptr inbounds nuw i8, ptr %1, i64 8
  %7 = load double, ptr %6, align 8
  %8 = getelementptr inbounds nuw i8, ptr %0, i64 8
  %9 = load double, ptr %8, align 8
  %10 = fsub double %9, %7
  store double %10, ptr %8, align 8
  %11 = getelementptr inbounds nuw i8, ptr %1, i64 16
  %12 = load double, ptr %11, align 8
  %13 = getelementptr inbounds nuw i8, ptr %0, i64 16
  %14 = load double, ptr %13, align 8
  %15 = fsub double %14, %12
  store double %15, ptr %13, align 8
  %16 = getelementptr inbounds nuw i8, ptr %1, i64 24
  %17 = load double, ptr %16, align 8
  %18 = getelementptr inbounds nuw i8, ptr %0, i64 24
  %19 = load double, ptr %18, align 8
  %20 = fsub double %19, %17
  store double %20, ptr %18, align 8
  ret ptr %0
}